; Function Attrs: mustprogress nounwind uwtable
define dso_local noundef ptr @_ZN4node6crypto7NodeBIO7FromBIOEP6bio_st(ptr noundef %bio) local_unnamed_addr #3 align 2 {
entry:
  %call = tail call ptr @BIO_get_data(ptr noundef %bio) #16
  %cmp.not = icmp eq ptr %call, null
  br i1 %cmp.not, label %do.body3, label %do.end4

do.body3:                                         ; preds = %entry
  tail call void @_ZN4node6AssertERKNS_13AssertionInfoE(ptr noundef nonnull align 8 dereferenceable(24) @_ZZN4node6crypto7NodeBIO7FromBIOEP6bio_stE4args) #16
  tail call void @abort() #17
  unreachable

do.end4:                                          ; preds = %entry
  %call5 = tail call ptr @BIO_get_data(ptr noundef %bio) #16
  ret ptr %call5
}